target datalayout = "e-m:e-p270:32:32-p271:32:32-p272:64:64-i64:64-i128:128-f80:128-n8:16:32:64-S128"
target triple = "x86_64-pc-linux-gnu"

@pathmap_open.alt_root = internal global ptr null, align 8
@pathmap_open.alt_root_initialized = internal global i32 0, align 4
@.str = private unnamed_addr constant [11 x i8] c"SA_ALTROOT\00", align 1
@.str.1 = private unnamed_addr constant [28 x i8] c"path %s substituted for %s\0A\00", align 1

; Function Attrs: nounwind uwtable
define hidden i32 @pathmap_open(ptr noundef %0) #0 {
  %2 = alloca i32, align 4
  %3 = alloca ptr, align 8
  %4 = alloca i32, align 4
  %5 = alloca [4097 x i8], align 16
  %6 = alloca ptr, align 8
  %7 = alloca ptr, align 8
  %8 = alloca i32, align 4
  store ptr %0, ptr %3, align 8
  %9 = load i32, ptr @pathmap_open.alt_root_initialized, align 4
  %10 = icmp ne i32 %9, 0
  br i1 %10, label %13, label %11

11:                                               ; preds = %1
  store i32 -1, ptr @pathmap_open.alt_root_initialized, align 4
  %12 = call ptr @getenv(ptr noundef @.str) #6
  store ptr %12, ptr @pathmap_open.alt_root, align 8
  br label %13

13:                                               ; preds = %11, %1
  %14 = load ptr, ptr @pathmap_open.alt_root, align 8
  %15 = icmp eq ptr %14, null
  br i1 %15, label %16, label %19

16:                                               ; preds = %13
  %17 = load ptr, ptr %3, align 8
  %18 = call i32 (ptr, i32, ...) @open64(ptr noundef %17, i32 noundef 0)
  store i32 %18, ptr %2, align 4
  br label %68

19:                                               ; preds = %13
  %20 = load ptr, ptr @pathmap_open.alt_root, align 8
  %21 = call i64 @strlen(ptr noundef %20) #7
  %22 = load ptr, ptr %3, align 8
  %23 = call i64 @strlen(ptr noundef %22) #7
  %24 = add i64 %21, %23
  %25 = icmp ugt i64 %24, 4096
  br i1 %25, label %26, label %27

26:                                               ; preds = %19
  store i32 -1, ptr %2, align 4
  br label %68

27:                                               ; preds = %19
  %28 = getelementptr inbounds [4097 x i8], ptr %5, i64 0, i64 0
  %29 = load ptr, ptr @pathmap_open.alt_root, align 8
  %30 = call ptr @strncpy(ptr noundef %28, ptr noundef %29, i64 noundef 4096) #6
  %31 = getelementptr inbounds [4097 x i8], ptr %5, i64 0, i64 4096
  store i8 0, ptr %31, align 16
  %32 = getelementptr inbounds [4097 x i8], ptr %5, i64 0, i64 0
  %33 = getelementptr inbounds [4097 x i8], ptr %5, i64 0, i64 0
  %34 = call i64 @strlen(ptr noundef %33) #7
  %35 = getelementptr inbounds i8, ptr %32, i64 %34
  store ptr %35, ptr %6, align 8
  %36 = load ptr, ptr %6, align 8
  %37 = getelementptr inbounds [4097 x i8], ptr %5, i64 0, i64 0
  %38 = ptrtoint ptr %36 to i64
  %39 = ptrtoint ptr %37 to i64
  %40 = sub i64 %38, %39
  %41 = sub nsw i64 4097, %40
  %42 = trunc i64 %41 to i32
  store i32 %42, ptr %8, align 4
  %43 = load ptr, ptr %3, align 8
  store ptr %43, ptr %7, align 8
  br label %44

44:                                               ; preds = %65, %27
  %45 = getelementptr inbounds [4097 x i8], ptr %5, i64 0, i64 0
  %46 = load ptr, ptr %7, align 8
  %47 = load i32, ptr %8, align 4
  %48 = sext i32 %47 to i64
  %49 = call ptr @strncat(ptr noundef %45, ptr noundef %46, i64 noundef %48) #6
  %50 = load ptr, ptr %7, align 8
  %51 = getelementptr inbounds i8, ptr %50, i64 1
  store ptr %51, ptr %7, align 8
  %52 = getelementptr inbounds [4097 x i8], ptr %5, i64 0, i64 0
  %53 = call i32 (ptr, i32, ...) @open64(ptr noundef %52, i32 noundef 0)
  store i32 %53, ptr %4, align 4
  %54 = load i32, ptr %4, align 4
  %55 = icmp sge i32 %54, 0
  br i1 %55, label %56, label %60

56:                                               ; preds = %44
  %57 = getelementptr inbounds [4097 x i8], ptr %5, i64 0, i64 0
  %58 = load ptr, ptr %3, align 8
  call void (ptr, ...) @print_debug(ptr noundef @.str.1, ptr noundef %57, ptr noundef %58)
  %59 = load i32, ptr %4, align 4
  store i32 %59, ptr %2, align 4
  br label %68

60:                                               ; preds = %44
  %61 = load ptr, ptr %7, align 8
  %62 = call ptr @strchr(ptr noundef %61, i32 noundef 47) #7
  store ptr %62, ptr %7, align 8
  %63 = icmp eq ptr %62, null
  br i1 %63, label %64, label %65

64:                                               ; preds = %60
  br label %67

65:                                               ; preds = %60
  %66 = load ptr, ptr %6, align 8
  store i8 0, ptr %66, align 1
  br label %44

67:                                               ; preds = %64
  store i32 -1, ptr %2, align 4
  br label %68

68:                                               ; preds = %67, %56, %26, %16
  %69 = load i32, ptr %2, align 4
  ret i32 %69
}