; Function Attrs: nofree nounwind uwtable
define hidden noundef i32 @pathmap_open(ptr noundef %0) local_unnamed_addr #0 {
  %2 = alloca [4097 x i8], align 16
  %.b = load i1, ptr @pathmap_open.alt_root_initialized, align 4
  br i1 %.b, label %thread-pre-split, label %3

3:                                                ; preds = %1
  store i1 true, ptr @pathmap_open.alt_root_initialized, align 4
  %4 = tail call ptr @getenv(ptr noundef nonnull @.str) #21
  store ptr %4, ptr @pathmap_open.alt_root, align 8
  br label %5

thread-pre-split:                                 ; preds = %1
  %.pr = load ptr, ptr @pathmap_open.alt_root, align 8
  br label %5

5:                                                ; preds = %thread-pre-split, %3
  %6 = phi ptr [ %.pr, %thread-pre-split ], [ %4, %3 ]
  %7 = icmp eq ptr %6, null
  br i1 %7, label %8, label %10

8:                                                ; preds = %5
  %9 = tail call i32 (ptr, i32, ...) @open64(ptr noundef %0, i32 noundef 0) #21
  br label %.loopexit

10:                                               ; preds = %5
  %11 = tail call i64 @strlen(ptr noundef nonnull dereferenceable(1) %6) #22
  %12 = tail call i64 @strlen(ptr noundef nonnull dereferenceable(1) %0) #22
  %13 = add i64 %12, %11
  %14 = icmp ugt i64 %13, 4096
  br i1 %14, label %.loopexit, label %15

15:                                               ; preds = %10
  %16 = call ptr @strncpy(ptr noundef nonnull dereferenceable(1) %2, ptr noundef nonnull dereferenceable(1) %6, i64 noundef 4096) #21
  %17 = getelementptr inbounds i8, ptr %2, i64 4096
  store i8 0, ptr %17, align 16
  %18 = call i64 @strlen(ptr noundef nonnull dereferenceable(1) %2) #22
  %19 = getelementptr inbounds i8, ptr %2, i64 %18
  %20 = shl i64 %18, 32
  %sext = sub i64 17596481011712, %20
  %21 = ashr exact i64 %sext, 32
  %22 = call ptr @strncat(ptr noundef nonnull dereferenceable(1) %2, ptr noundef %0, i64 noundef %21) #21
  %23 = call i32 (ptr, i32, ...) @open64(ptr noundef nonnull %2, i32 noundef 0) #21
  %24 = icmp sgt i32 %23, -1
  br i1 %24, label %._crit_edge, label %.lr.ph

._crit_edge:                                      ; preds = %28, %15
  %.lcssa = phi i32 [ %23, %15 ], [ %30, %28 ]
  call void (ptr, ...) @print_debug(ptr noundef nonnull @.str.1, ptr noundef nonnull %2, ptr noundef %0)
  br label %.loopexit

.lr.ph:                                           ; preds = %15, %28
  %.01217 = phi ptr [ %26, %28 ], [ %0, %15 ]
  %25 = getelementptr inbounds i8, ptr %.01217, i64 1
  %26 = call ptr @strchr(ptr noundef nonnull dereferenceable(1) %25, i32 noundef 47) #22
  %27 = icmp eq ptr %26, null
  br i1 %27, label %.loopexit, label %28

28:                                               ; preds = %.lr.ph
  store i8 0, ptr %19, align 1
  %29 = call ptr @strncat(ptr noundef nonnull dereferenceable(1) %2, ptr noundef nonnull %26, i64 noundef %21) #21
  %30 = call i32 (ptr, i32, ...) @open64(ptr noundef nonnull %2, i32 noundef 0) #21
  %31 = icmp sgt i32 %30, -1
  br i1 %31, label %._crit_edge, label %.lr.ph

.loopexit:                                        ; preds = %.lr.ph, %10, %._crit_edge, %8
  %.0 = phi i32 [ %9, %8 ], [ %.lcssa, %._crit_edge ], [ -1, %10 ], [ -1, %.lr.ph ]
  ret i32 %.0
}